target datalayout = "e-m:e-p270:32:32-p271:32:32-p272:64:64-i64:64-i128:128-f80:128-n8:16:32:64-S128"
target triple = "x86_64-pc-linux-gnu"

%"class.std::__1::basic_string" = type { %"class.std::__1::__compressed_pair.55" }
%"class.std::__1::__compressed_pair.55" = type { %"struct.std::__1::__compressed_pair_elem.56" }
%"struct.std::__1::__compressed_pair_elem.56" = type { %"struct.std::__1::basic_string<char>::__rep" }
%"struct.std::__1::basic_string<char>::__rep" = type { %union.anon }
%union.anon = type { %"struct.std::__1::basic_string<char>::__long" }
%"struct.std::__1::basic_string<char>::__long" = type { %struct.anon.57, i64, ptr }
%struct.anon.57 = type { i64 }
%"class.mitsuba::Object.base" = type <{ ptr, %"struct.std::__1::atomic" }>
%"struct.std::__1::atomic" = type { %"struct.std::__1::__atomic_base" }
%"struct.std::__1::__atomic_base" = type { %"struct.std::__1::__atomic_base.0" }
%"struct.std::__1::__atomic_base.0" = type { %"struct.std::__1::__cxx_atomic_impl" }
%"struct.std::__1::__cxx_atomic_impl" = type { %"struct.std::__1::__cxx_atomic_base_impl" }
%"struct.std::__1::__cxx_atomic_base_impl" = type { i32 }
%"class.mitsuba::Logger" = type { %"class.mitsuba::Object.base", i32, %"class.std::__1::unique_ptr.260" }
%"class.std::__1::unique_ptr.260" = type { %"class.std::__1::__compressed_pair.261" }
%"class.std::__1::__compressed_pair.261" = type { %"struct.std::__1::__compressed_pair_elem.262" }
%"struct.std::__1::__compressed_pair_elem.262" = type { ptr }

@.str.15 = private unnamed_addr constant [123 x i8] c"generated/home/dtcxzyw/WorkSpace/Projects/compilers/llvm-opt-benchmark/bench/mitsuba3/mitsuba3/src/render/scene_embree.inl\00", align 1
@_ZN7mitsuba7m_classE = external global ptr, align 8
@.str.24 = private unnamed_addr constant [28 x i8] c"Embree device error %i: %s.\00", align 1

; Function Attrs: mustprogress nounwind uwtable
define linkonce_odr noundef i32 @_ZNK7mitsuba6Logger9log_levelEv(ptr noundef nonnull align 8 dereferenceable(24) %0) #3 comdat align 2 {
  %2 = alloca ptr, align 8
  store ptr %0, ptr %2, align 8
  %3 = load ptr, ptr %2, align 8
  %4 = getelementptr inbounds %"class.mitsuba::Logger", ptr %3, i32 0, i32 1
  %5 = load i32, ptr %4, align 4
  ret i32 %5
}

; Function Attrs: mustprogress uwtable
define internal void @_ZN7mitsubaL21embree_error_callbackEPv8RTCErrorPKc(ptr noundef %0, i32 noundef %1, ptr noundef %2) #0 personality ptr @__gxx_personality_v0 {
  %4 = alloca i32, align 4
  %5 = alloca ptr, align 8
  %6 = alloca ptr, align 8
  %7 = alloca i32, align 4
  %8 = alloca ptr, align 8
  %9 = alloca ptr, align 8
  %10 = alloca ptr, align 8
  %11 = alloca ptr, align 8
  %12 = alloca %"class.std::__1::basic_string", align 8
  %13 = alloca ptr, align 8
  %14 = alloca i32, align 4
  %15 = alloca ptr, align 8
  %16 = alloca i32, align 4
  %17 = alloca ptr, align 8
  %18 = alloca i32, align 4
  store ptr %0, ptr %15, align 8
  store i32 %1, ptr %16, align 4
  store ptr %2, ptr %17, align 8
  br label %19

19:                                               ; preds = %3
  %20 = load ptr, ptr @_ZN7mitsuba7m_classE, align 8
  %21 = load i32, ptr %16, align 4
  store i32 %21, ptr %18, align 4
  store i32 300, ptr %4, align 4
  store ptr %20, ptr %5, align 8
  store ptr @.str.15, ptr %6, align 8
  store i32 22, ptr %7, align 4
  store ptr @.str.24, ptr %8, align 8
  store ptr %18, ptr %9, align 8
  store ptr %17, ptr %10, align 8
  %22 = call noundef ptr @_ZN7mitsuba6Thread6threadEv()
  %23 = call noundef ptr @_ZN7mitsuba6Thread6loggerEv(ptr noundef nonnull align 8 dereferenceable(24) %22)
  store ptr %23, ptr %11, align 8
  %24 = load ptr, ptr %11, align 8
  %25 = icmp ne ptr %24, null
  br i1 %25, label %26, label %49

26:                                               ; preds = %19
  %27 = load i32, ptr %4, align 4
  %28 = load ptr, ptr %11, align 8
  %29 = call noundef i32 @_ZNK7mitsuba6Logger9log_levelEv(ptr noundef nonnull align 8 dereferenceable(24) %28)
  %30 = icmp sge i32 %27, %29
  br i1 %30, label %31, label %49

31:                                               ; preds = %26
  %32 = load ptr, ptr %11, align 8
  %33 = load i32, ptr %4, align 4
  %34 = load ptr, ptr %5, align 8
  %35 = load ptr, ptr %6, align 8
  %36 = load i32, ptr %7, align 4
  %37 = load ptr, ptr %8, align 8
  %38 = load ptr, ptr %9, align 8
  %39 = load ptr, ptr %10, align 8
  call void @_ZN10tinyformat6formatIJiPKcEEENSt3__112basic_stringIcNS3_11char_traitsIcEENS3_9allocatorIcEEEES2_DpRKT_(ptr dead_on_unwind writable sret(%"class.std::__1::basic_string") align 8 %12, ptr noundef %37, ptr noundef nonnull align 4 dereferenceable(4) %38, ptr noundef nonnull align 8 dereferenceable(8) %39)
  invoke void @_ZN7mitsuba6Logger3logENS_8LogLevelEPKNS_5ClassEPKciRKNSt3__112basic_stringIcNS7_11char_traitsIcEENS7_9allocatorIcEEEE(ptr noundef nonnull align 8 dereferenceable(24) %32, i32 noundef %33, ptr noundef %34, ptr noundef %35, i32 noundef %36, ptr noundef nonnull align 8 dereferenceable(24) %12)
          to label %40 unwind label %41

40:                                               ; preds = %31
  call void @_ZNSt3__112basic_stringIcNS_11char_traitsIcEENS_9allocatorIcEEED1Ev(ptr noundef nonnull align 8 dereferenceable(24) %12) #25
  br label %49

41:                                               ; preds = %31
  %42 = landingpad { ptr, i32 }
          cleanup
  %43 = extractvalue { ptr, i32 } %42, 0
  store ptr %43, ptr %13, align 8
  %44 = extractvalue { ptr, i32 } %42, 1
  store i32 %44, ptr %14, align 4
  call void @_ZNSt3__112basic_stringIcNS_11char_traitsIcEENS_9allocatorIcEEED1Ev(ptr noundef nonnull align 8 dereferenceable(24) %12) #25
  %45 = load ptr, ptr %13, align 8
  %46 = load i32, ptr %14, align 4
  %47 = insertvalue { ptr, i32 } poison, ptr %45, 0
  %48 = insertvalue { ptr, i32 } %47, i32 %46, 1
  resume { ptr, i32 } %48

49:                                               ; preds = %40, %26, %19
  br label %50

50:                                               ; preds = %49
  ret void
}