; Function Attrs: mustprogress uwtable
define internal void @_ZN7mitsubaL21embree_error_callbackEPv8RTCErrorPKc(ptr nocapture readnone %0, i32 noundef %1, ptr noundef %2) #0 personality ptr @__gxx_personality_v0 {
  %4 = alloca %"class.std::__1::basic_string", align 8
  %5 = alloca ptr, align 8
  %6 = alloca i32, align 4
  store ptr %2, ptr %5, align 8
  %7 = load ptr, ptr @_ZN7mitsuba7m_classE, align 8
  store i32 %1, ptr %6, align 4
  %8 = tail call noundef ptr @_ZN7mitsuba6Thread6threadEv()
  %9 = tail call noundef ptr @_ZN7mitsuba6Thread6loggerEv(ptr noundef nonnull align 8 dereferenceable(24) %8)
  %.not = icmp eq ptr %9, null
  br i1 %.not, label %18, label %10

10:                                               ; preds = %3
  %11 = getelementptr inbounds i8, ptr %9, i64 12
  %12 = load i32, ptr %11, align 4
  %13 = icmp slt i32 %12, 301
  br i1 %13, label %14, label %18

14:                                               ; preds = %10
  call void @_ZN10tinyformat6formatIJiPKcEEENSt3__112basic_stringIcNS3_11char_traitsIcEENS3_9allocatorIcEEEES2_DpRKT_(ptr dead_on_unwind nonnull writable sret(%"class.std::__1::basic_string") align 8 %4, ptr noundef nonnull @.str.24, ptr noundef nonnull align 4 dereferenceable(4) %6, ptr noundef nonnull align 8 dereferenceable(8) %5)
  invoke void @_ZN7mitsuba6Logger3logENS_8LogLevelEPKNS_5ClassEPKciRKNSt3__112basic_stringIcNS7_11char_traitsIcEENS7_9allocatorIcEEEE(ptr noundef nonnull align 8 dereferenceable(24) %9, i32 noundef 300, ptr noundef %7, ptr noundef nonnull @.str.15, i32 noundef 22, ptr noundef nonnull align 8 dereferenceable(24) %4)
          to label %15 unwind label %16

15:                                               ; preds = %14
  call void @_ZNSt3__112basic_stringIcNS_11char_traitsIcEENS_9allocatorIcEEED1Ev(ptr noundef nonnull align 8 dereferenceable(24) %4) #24
  br label %18

16:                                               ; preds = %14
  %17 = landingpad { ptr, i32 }
          cleanup
  call void @_ZNSt3__112basic_stringIcNS_11char_traitsIcEENS_9allocatorIcEEED1Ev(ptr noundef nonnull align 8 dereferenceable(24) %4) #24
  resume { ptr, i32 } %17

18:                                               ; preds = %3, %10, %15
  ret void
}